; Function Attrs: nounwind uwtable
define noalias noundef ptr @Abc_NtkReadFlopPerm(ptr noundef %0, i32 noundef %1) local_unnamed_addr #0 {
  %3 = alloca [1000 x i8], align 16
  call void @llvm.lifetime.start.p0(i64 1000, ptr nonnull %3) #20
  %4 = tail call noalias ptr @fopen(ptr noundef %0, ptr noundef nonnull @.str.43)
  %5 = icmp eq ptr %4, null
  br i1 %5, label %6, label %8

6:                                                ; preds = %2
  %7 = tail call i32 (ptr, ...) @printf(ptr noundef nonnull dereferenceable(1) @.str.44, ptr noundef %0)
  br label %59

8:                                                ; preds = %2
  %9 = tail call noalias dereferenceable_or_null(16) ptr @malloc(i64 noundef 16) #19
  %10 = add i32 %1, -1
  %or.cond.i = icmp ult i32 %10, 15
  %spec.store.select.i = select i1 %or.cond.i, i32 16, i32 %1
  %11 = getelementptr inbounds nuw i8, ptr %9, i64 4
  store i32 0, ptr %11, align 4, !tbaa !59
  store i32 %spec.store.select.i, ptr %9, align 8, !tbaa !60
  %.not.i = icmp eq i32 %spec.store.select.i, 0
  br i1 %.not.i, label %Vec_IntAlloc.exit, label %12

12:                                               ; preds = %8
  %13 = sext i32 %spec.store.select.i to i64
  %14 = shl nsw i64 %13, 2
  %15 = tail call noalias ptr @malloc(i64 noundef %14) #19
  br label %Vec_IntAlloc.exit

Vec_IntAlloc.exit:                                ; preds = %8, %12
  %16 = phi ptr [ %15, %12 ], [ null, %8 ]
  %17 = getelementptr inbounds nuw i8, ptr %9, i64 8
  store ptr %16, ptr %17, align 8, !tbaa !61
  %18 = call ptr @fgets(ptr noundef nonnull %3, i32 noundef 1000, ptr noundef nonnull %4)
  %.not3739 = icmp eq ptr %18, null
  br i1 %.not3739, label %.outer._crit_edge, label %.lr.ph

.lr.ph:                                           ; preds = %Vec_IntAlloc.exit, %Vec_IntPush.exit
  %19 = phi ptr [ %.pre.i46, %Vec_IntPush.exit ], [ %16, %Vec_IntAlloc.exit ]
  %.0.ph40 = phi i32 [ %25, %Vec_IntPush.exit ], [ -1, %Vec_IntAlloc.exit ]
  br label %20

20:                                               ; preds = %.lr.ph, %.backedge
  %21 = load i8, ptr %3, align 16, !tbaa !49
  switch i8 %21, label %23 [
    i8 32, label %.backedge
    i8 13, label %.backedge
    i8 10, label %.backedge
  ]

.backedge:                                        ; preds = %20, %20, %20
  %22 = call ptr @fgets(ptr noundef nonnull %3, i32 noundef 1000, ptr noundef nonnull %4)
  %.not = icmp eq ptr %22, null
  br i1 %.not, label %.outer._crit_edge, label %20

23:                                               ; preds = %20
  %24 = call i64 @strtol(ptr noundef nonnull captures(none) %3, ptr noundef null, i32 noundef 10) #20
  %25 = trunc i64 %24 to i32
  %26 = icmp sgt i32 %25, -1
  %.not32 = icmp sgt i32 %1, %25
  %or.cond = and i1 %26, %.not32
  br i1 %or.cond, label %31, label %27

27:                                               ; preds = %23
  %28 = call i32 (ptr, ...) @printf(ptr noundef nonnull dereferenceable(1) @.str.45, i32 noundef %25)
  %29 = call i32 @fclose(ptr noundef nonnull %4)
  %.not.i33 = icmp eq ptr %19, null
  br i1 %.not.i33, label %Vec_IntFree.exit, label %30

30:                                               ; preds = %27
  call void @free(ptr noundef nonnull %19) #20
  br label %Vec_IntFree.exit

Vec_IntFree.exit:                                 ; preds = %27, %30
  call void @free(ptr noundef nonnull %9) #20
  br label %59

31:                                               ; preds = %23
  %32 = load i32, ptr %11, align 4, !tbaa !59
  %33 = load i32, ptr %9, align 8, !tbaa !60
  %34 = icmp eq i32 %32, %33
  br i1 %34, label %35, label %Vec_IntPush.exit

35:                                               ; preds = %31
  %36 = icmp slt i32 %32, 16
  br i1 %36, label %37, label %42

37:                                               ; preds = %35
  %.not9.i.i = icmp eq ptr %19, null
  br i1 %.not9.i.i, label %40, label %38

38:                                               ; preds = %37
  %39 = call dereferenceable_or_null(64) ptr @realloc(ptr noundef nonnull %19, i64 noundef 64) #21
  br label %Vec_IntPush.exit.sink.split

40:                                               ; preds = %37
  %41 = call noalias dereferenceable_or_null(64) ptr @malloc(i64 noundef 64) #19
  br label %Vec_IntPush.exit.sink.split

42:                                               ; preds = %35
  %43 = shl nuw nsw i32 %32, 1
  %.not9.i9.i = icmp eq ptr %19, null
  %44 = zext nneg i32 %43 to i64
  %45 = shl nuw nsw i64 %44, 2
  br i1 %.not9.i9.i, label %48, label %46

46:                                               ; preds = %42
  %47 = call ptr @realloc(ptr noundef nonnull %19, i64 noundef %45) #21
  br label %Vec_IntPush.exit.sink.split

48:                                               ; preds = %42
  %49 = call noalias ptr @malloc(i64 noundef %45) #19
  br label %Vec_IntPush.exit.sink.split

Vec_IntPush.exit.sink.split:                      ; preds = %46, %48, %38, %40
  %.sink55 = phi ptr [ %39, %38 ], [ %41, %40 ], [ %47, %46 ], [ %49, %48 ]
  %.sink = phi i32 [ 16, %38 ], [ 16, %40 ], [ %43, %46 ], [ %43, %48 ]
  store ptr %.sink55, ptr %17, align 8, !tbaa !61
  store i32 %.sink, ptr %9, align 8, !tbaa !60
  br label %Vec_IntPush.exit

Vec_IntPush.exit:                                 ; preds = %Vec_IntPush.exit.sink.split, %31
  %.pre.i46 = phi ptr [ %19, %31 ], [ %.sink55, %Vec_IntPush.exit.sink.split ]
  %50 = add nsw i32 %32, 1
  store i32 %50, ptr %11, align 4, !tbaa !59
  %51 = sext i32 %32 to i64
  %52 = getelementptr inbounds i32, ptr %.pre.i46, i64 %51
  store i32 %25, ptr %52, align 4, !tbaa !57
  %53 = call ptr @fgets(ptr noundef nonnull %3, i32 noundef 1000, ptr noundef nonnull %4)
  %.not37 = icmp eq ptr %53, null
  br i1 %.not37, label %.outer._crit_edge, label %.lr.ph, !llvm.loop !206

.outer._crit_edge:                                ; preds = %Vec_IntPush.exit, %.backedge, %Vec_IntAlloc.exit
  %54 = phi ptr [ %16, %Vec_IntAlloc.exit ], [ %19, %.backedge ], [ %.pre.i46, %Vec_IntPush.exit ]
  %.0.ph.lcssa36 = phi i32 [ -1, %Vec_IntAlloc.exit ], [ %.0.ph40, %.backedge ], [ %25, %Vec_IntPush.exit ]
  %55 = call i32 @fclose(ptr noundef nonnull %4)
  %.val = load i32, ptr %11, align 4, !tbaa !59
  %.not31 = icmp eq i32 %.val, %1
  br i1 %.not31, label %59, label %56

56:                                               ; preds = %.outer._crit_edge
  %57 = call i32 (ptr, ...) @printf(ptr noundef nonnull dereferenceable(1) @.str.46, i32 noundef %.0.ph.lcssa36, i32 noundef %1)
  %.not.i34 = icmp eq ptr %54, null
  br i1 %.not.i34, label %Vec_IntFree.exit35, label %58

58:                                               ; preds = %56
  call void @free(ptr noundef nonnull %54) #20
  br label %Vec_IntFree.exit35

Vec_IntFree.exit35:                               ; preds = %56, %58
  call void @free(ptr noundef nonnull %9) #20
  br label %59

59:                                               ; preds = %.outer._crit_edge, %Vec_IntFree.exit35, %Vec_IntFree.exit, %6
  %.027 = phi ptr [ null, %6 ], [ null, %Vec_IntFree.exit ], [ null, %Vec_IntFree.exit35 ], [ %9, %.outer._crit_edge ]
  call void @llvm.lifetime.end.p0(i64 1000, ptr nonnull %3) #20
  ret ptr %.027
}